/*
 * Intel ACPI Component Architecture
 * AML/ASL+ Disassembler version 20190509 (64-bit version)
 * Copyright (c) 2000 - 2019 Intel Corporation
 * 
 * Disassembly of tests/data/acpi/virt/MCFG.memhp, Tue Aug  4 11:14:15 2020
 *
 * ACPI Data Table [MCFG]
 *
 * Format: [HexOffset DecimalOffset ByteLength]  FieldName : FieldValue
 */

[000h 0000   4]                    Signature : "MCFG"    [Memory Mapped Configuration table]
[004h 0004   4]                 Table Length : 0000003C
[008h 0008   1]                     Revision : 01
[009h 0009   1]                     Checksum : 4F
[00Ah 0010   6]                       Oem ID : "BOCHS "
[010h 0016   8]                 Oem Table ID : "BXPCMCFG"
[018h 0024   4]                 Oem Revision : 00000001
[01Ch 0028   4]              Asl Compiler ID : "BXPC"
[020h 0032   4]        Asl Compiler Revision : 00000001

[024h 0036   8]                     Reserved : 0000000000000000

[02Ch 0044   8]                 Base Address : 0000004010000000
[034h 0052   2]         Segment Group Number : 0000
[036h 0054   1]             Start Bus Number : 00
[037h 0055   1]               End Bus Number : FF
[038h 0056   4]                     Reserved : 00000000

Raw Table Data: Length 60 (0x3C)

    0000: 4D 43 46 47 3C 00 00 00 01 4F 42 4F 43 48 53 20  // MCFG<....OBOCHS 
    0010: 42 58 50 43 4D 43 46 47 01 00 00 00 42 58 50 43  // BXPCMCFG....BXPC
    0020: 01 00 00 00 00 00 00 00 00 00 00 00 00 00 00 10  // ................
    0030: 40 00 00 00 00 00 00 FF 00 00 00 00              // @...........
